target datalayout = "e-m:e-p270:32:32-p271:32:32-p272:64:64-i64:64-i128:128-f80:128-n8:16:32:64-S128"
target triple = "x86_64-pc-linux-gnu"

%struct.rust_demangler = type { ptr, i64, ptr, ptr, i64, i8, i8, i8, i32, i64 }

@.str.25 = private unnamed_addr constant [4 x i8] c"\\u{\00", align 1
@.str.26 = private unnamed_addr constant [3 x i8] c"%x\00", align 1
@.str.27 = private unnamed_addr constant [2 x i8] c"}\00", align 1
@.str.72 = private unnamed_addr constant [2 x i8] c"'\00", align 1
@.str.80 = private unnamed_addr constant [3 x i8] c"\\0\00", align 1
@.str.81 = private unnamed_addr constant [3 x i8] c"\\t\00", align 1
@.str.82 = private unnamed_addr constant [3 x i8] c"\\r\00", align 1
@.str.83 = private unnamed_addr constant [3 x i8] c"\\n\00", align 1
@.str.84 = private unnamed_addr constant [3 x i8] c"\\\\\00", align 1
@.str.85 = private unnamed_addr constant [3 x i8] c"\\\22\00", align 1
@.str.86 = private unnamed_addr constant [2 x i8] c"\22\00", align 1
@.str.87 = private unnamed_addr constant [3 x i8] c"\\'\00", align 1

; Function Attrs: nounwind
define internal void @print_str(ptr noundef %0, ptr noundef %1, i64 noundef %2) #0 {
  %4 = alloca ptr, align 8
  %5 = alloca ptr, align 8
  %6 = alloca i64, align 8
  store ptr %0, ptr %4, align 8, !tbaa !30
  store ptr %1, ptr %5, align 8, !tbaa !3
  store i64 %2, ptr %6, align 8, !tbaa !33
  %7 = load ptr, ptr %4, align 8, !tbaa !30
  %8 = getelementptr inbounds nuw %struct.rust_demangler, ptr %7, i32 0, i32 5
  %9 = load i8, ptr %8, align 8, !tbaa !19, !range !27, !noundef !28
  %10 = trunc i8 %9 to i1
  br i1 %10, label %25, label %11

11:                                               ; preds = %3
  %12 = load ptr, ptr %4, align 8, !tbaa !30
  %13 = getelementptr inbounds nuw %struct.rust_demangler, ptr %12, i32 0, i32 6
  %14 = load i8, ptr %13, align 1, !tbaa !20, !range !27, !noundef !28
  %15 = trunc i8 %14 to i1
  br i1 %15, label %25, label %16

16:                                               ; preds = %11
  %17 = load ptr, ptr %4, align 8, !tbaa !30
  %18 = getelementptr inbounds nuw %struct.rust_demangler, ptr %17, i32 0, i32 3
  %19 = load ptr, ptr %18, align 8, !tbaa !17
  %20 = load ptr, ptr %5, align 8, !tbaa !3
  %21 = load i64, ptr %6, align 8, !tbaa !33
  %22 = load ptr, ptr %4, align 8, !tbaa !30
  %23 = getelementptr inbounds nuw %struct.rust_demangler, ptr %22, i32 0, i32 2
  %24 = load ptr, ptr %23, align 8, !tbaa !16
  call void %19(ptr noundef %20, i64 noundef %21, ptr noundef %24)
  br label %25

25:                                               ; preds = %16, %11, %3
  ret void
}

; Function Attrs: nounwind
define internal void @print_quoted_escaped_char(ptr noundef %0, i8 noundef signext %1, i32 noundef %2) #0 {
  %4 = alloca ptr, align 8
  %5 = alloca i8, align 1
  %6 = alloca i32, align 4
  %7 = alloca i8, align 1
  %8 = alloca [9 x i8], align 1
  store ptr %0, ptr %4, align 8, !tbaa !30
  store i8 %1, ptr %5, align 1, !tbaa !24
  store i32 %2, ptr %6, align 4, !tbaa !8
  br label %9

9:                                                ; preds = %3
  %10 = load i32, ptr %6, align 4, !tbaa !8
  %11 = icmp ult i32 %10, 55296
  br i1 %11, label %23, label %12

12:                                               ; preds = %9
  %13 = load i32, ptr %6, align 4, !tbaa !8
  %14 = icmp ugt i32 %13, 57343
  br i1 %14, label %15, label %18

15:                                               ; preds = %12
  %16 = load i32, ptr %6, align 4, !tbaa !8
  %17 = icmp ult i32 %16, 1114111
  br i1 %17, label %23, label %18

18:                                               ; preds = %15, %12
  br label %19

19:                                               ; preds = %18
  %20 = load ptr, ptr %4, align 8, !tbaa !30
  %21 = getelementptr inbounds nuw %struct.rust_demangler, ptr %20, i32 0, i32 5
  store i8 1, ptr %21, align 8, !tbaa !19
  br label %75

22:                                               ; No predecessors!
  br label %23

23:                                               ; preds = %22, %15, %9
  br label %24

24:                                               ; preds = %23
  %25 = load i32, ptr %6, align 4, !tbaa !8
  switch i32 %25, label %54 [
    i32 0, label %26
    i32 9, label %28
    i32 13, label %30
    i32 10, label %32
    i32 92, label %34
    i32 34, label %36
    i32 39, label %45
  ]

26:                                               ; preds = %24
  %27 = load ptr, ptr %4, align 8, !tbaa !30
  call void @print_str(ptr noundef %27, ptr noundef @.str.80, i64 noundef 2)
  br label %75

28:                                               ; preds = %24
  %29 = load ptr, ptr %4, align 8, !tbaa !30
  call void @print_str(ptr noundef %29, ptr noundef @.str.81, i64 noundef 2)
  br label %75

30:                                               ; preds = %24
  %31 = load ptr, ptr %4, align 8, !tbaa !30
  call void @print_str(ptr noundef %31, ptr noundef @.str.82, i64 noundef 2)
  br label %75

32:                                               ; preds = %24
  %33 = load ptr, ptr %4, align 8, !tbaa !30
  call void @print_str(ptr noundef %33, ptr noundef @.str.83, i64 noundef 2)
  br label %75

34:                                               ; preds = %24
  %35 = load ptr, ptr %4, align 8, !tbaa !30
  call void @print_str(ptr noundef %35, ptr noundef @.str.84, i64 noundef 2)
  br label %75

36:                                               ; preds = %24
  %37 = load i8, ptr %5, align 1, !tbaa !24
  %38 = sext i8 %37 to i32
  %39 = icmp eq i32 %38, 34
  br i1 %39, label %40, label %42

40:                                               ; preds = %36
  %41 = load ptr, ptr %4, align 8, !tbaa !30
  call void @print_str(ptr noundef %41, ptr noundef @.str.85, i64 noundef 2)
  br label %44

42:                                               ; preds = %36
  %43 = load ptr, ptr %4, align 8, !tbaa !30
  call void @print_str(ptr noundef %43, ptr noundef @.str.86, i64 noundef 1)
  br label %44

44:                                               ; preds = %42, %40
  br label %75

45:                                               ; preds = %24
  %46 = load i8, ptr %5, align 1, !tbaa !24
  %47 = sext i8 %46 to i32
  %48 = icmp eq i32 %47, 39
  br i1 %48, label %49, label %51

49:                                               ; preds = %45
  %50 = load ptr, ptr %4, align 8, !tbaa !30
  call void @print_str(ptr noundef %50, ptr noundef @.str.87, i64 noundef 2)
  br label %53

51:                                               ; preds = %45
  %52 = load ptr, ptr %4, align 8, !tbaa !30
  call void @print_str(ptr noundef %52, ptr noundef @.str.72, i64 noundef 1)
  br label %53

53:                                               ; preds = %51, %49
  br label %75

54:                                               ; preds = %24
  %55 = load i32, ptr %6, align 4, !tbaa !8
  %56 = icmp uge i32 %55, 32
  br i1 %56, label %57, label %64

57:                                               ; preds = %54
  %58 = load i32, ptr %6, align 4, !tbaa !8
  %59 = icmp ule i32 %58, 126
  br i1 %59, label %60, label %64

60:                                               ; preds = %57
  call void @llvm.lifetime.start.p0(i64 1, ptr %7) #8
  %61 = load i32, ptr %6, align 4, !tbaa !8
  %62 = trunc i32 %61 to i8
  store i8 %62, ptr %7, align 1, !tbaa !24
  %63 = load ptr, ptr %4, align 8, !tbaa !30
  call void @print_str(ptr noundef %63, ptr noundef %7, i64 noundef 1)
  call void @llvm.lifetime.end.p0(i64 1, ptr %7) #8
  br label %74

64:                                               ; preds = %57, %54
  %65 = load ptr, ptr %4, align 8, !tbaa !30
  call void @print_str(ptr noundef %65, ptr noundef @.str.25, i64 noundef 3)
  call void @llvm.lifetime.start.p0(i64 9, ptr %8) #8
  call void @llvm.memset.p0.i64(ptr align 1 %8, i8 0, i64 9, i1 false)
  %66 = getelementptr inbounds [9 x i8], ptr %8, i64 0, i64 0
  %67 = load i32, ptr %6, align 4, !tbaa !8
  %68 = call i32 (ptr, ptr, ...) @sprintf(ptr noundef %66, ptr noundef @.str.26, i32 noundef %67) #8
  %69 = load ptr, ptr %4, align 8, !tbaa !30
  %70 = getelementptr inbounds [9 x i8], ptr %8, i64 0, i64 0
  %71 = getelementptr inbounds [9 x i8], ptr %8, i64 0, i64 0
  %72 = call i64 @strlen(ptr noundef %71) #9
  call void @print_str(ptr noundef %69, ptr noundef %70, i64 noundef %72)
  %73 = load ptr, ptr %4, align 8, !tbaa !30
  call void @print_str(ptr noundef %73, ptr noundef @.str.27, i64 noundef 1)
  call void @llvm.lifetime.end.p0(i64 9, ptr %8) #8
  br label %74

74:                                               ; preds = %64, %60
  br label %75

75:                                               ; preds = %19, %74, %53, %44, %34, %32, %30, %28, %26
  ret void
}