; Function Attrs: nounwind
define internal fastcc void @print_quoted_escaped_char(ptr noundef nonnull captures(none) %0, i8 noundef signext range(i8 34, 40) %1, i32 noundef %2) unnamed_addr #0 {
  %4 = alloca i8, align 1
  %5 = alloca [9 x i8], align 1
  %6 = icmp ult i32 %2, 55296
  %7 = add i32 %2, -57344
  %or.cond = icmp ult i32 %7, 1056767
  %or.cond26 = or i1 %6, %or.cond
  br i1 %or.cond26, label %10, label %8

8:                                                ; preds = %3
  %9 = getelementptr inbounds nuw i8, ptr %0, i64 40
  store i8 1, ptr %9, align 8, !tbaa !15
  br label %print_str.exit

10:                                               ; preds = %3
  switch i32 %2, label %126 [
    i32 0, label %11
    i32 9, label %24
    i32 13, label %37
    i32 10, label %50
    i32 92, label %63
    i32 34, label %76
    i32 39, label %101
  ]

11:                                               ; preds = %10
  %12 = getelementptr inbounds nuw i8, ptr %0, i64 40
  %13 = load i8, ptr %12, align 8, !tbaa !15, !range !24, !noundef !25
  %14 = trunc nuw i8 %13 to i1
  br i1 %14, label %print_str.exit, label %15

15:                                               ; preds = %11
  %16 = getelementptr inbounds nuw i8, ptr %0, i64 41
  %17 = load i8, ptr %16, align 1, !tbaa !16, !range !24, !noundef !25
  %18 = trunc nuw i8 %17 to i1
  br i1 %18, label %print_str.exit, label %19

19:                                               ; preds = %15
  %20 = getelementptr inbounds nuw i8, ptr %0, i64 24
  %21 = load ptr, ptr %20, align 8, !tbaa !13
  %22 = getelementptr inbounds nuw i8, ptr %0, i64 16
  %23 = load ptr, ptr %22, align 8, !tbaa !12
  tail call void %21(ptr noundef nonnull @.str.80, i64 noundef 2, ptr noundef %23) #11
  br label %print_str.exit

24:                                               ; preds = %10
  %25 = getelementptr inbounds nuw i8, ptr %0, i64 40
  %26 = load i8, ptr %25, align 8, !tbaa !15, !range !24, !noundef !25
  %27 = trunc nuw i8 %26 to i1
  br i1 %27, label %print_str.exit, label %28

28:                                               ; preds = %24
  %29 = getelementptr inbounds nuw i8, ptr %0, i64 41
  %30 = load i8, ptr %29, align 1, !tbaa !16, !range !24, !noundef !25
  %31 = trunc nuw i8 %30 to i1
  br i1 %31, label %print_str.exit, label %32

32:                                               ; preds = %28
  %33 = getelementptr inbounds nuw i8, ptr %0, i64 24
  %34 = load ptr, ptr %33, align 8, !tbaa !13
  %35 = getelementptr inbounds nuw i8, ptr %0, i64 16
  %36 = load ptr, ptr %35, align 8, !tbaa !12
  tail call void %34(ptr noundef nonnull @.str.81, i64 noundef 2, ptr noundef %36) #11
  br label %print_str.exit

37:                                               ; preds = %10
  %38 = getelementptr inbounds nuw i8, ptr %0, i64 40
  %39 = load i8, ptr %38, align 8, !tbaa !15, !range !24, !noundef !25
  %40 = trunc nuw i8 %39 to i1
  br i1 %40, label %print_str.exit, label %41

41:                                               ; preds = %37
  %42 = getelementptr inbounds nuw i8, ptr %0, i64 41
  %43 = load i8, ptr %42, align 1, !tbaa !16, !range !24, !noundef !25
  %44 = trunc nuw i8 %43 to i1
  br i1 %44, label %print_str.exit, label %45

45:                                               ; preds = %41
  %46 = getelementptr inbounds nuw i8, ptr %0, i64 24
  %47 = load ptr, ptr %46, align 8, !tbaa !13
  %48 = getelementptr inbounds nuw i8, ptr %0, i64 16
  %49 = load ptr, ptr %48, align 8, !tbaa !12
  tail call void %47(ptr noundef nonnull @.str.82, i64 noundef 2, ptr noundef %49) #11
  br label %print_str.exit

50:                                               ; preds = %10
  %51 = getelementptr inbounds nuw i8, ptr %0, i64 40
  %52 = load i8, ptr %51, align 8, !tbaa !15, !range !24, !noundef !25
  %53 = trunc nuw i8 %52 to i1
  br i1 %53, label %print_str.exit, label %54

54:                                               ; preds = %50
  %55 = getelementptr inbounds nuw i8, ptr %0, i64 41
  %56 = load i8, ptr %55, align 1, !tbaa !16, !range !24, !noundef !25
  %57 = trunc nuw i8 %56 to i1
  br i1 %57, label %print_str.exit, label %58

58:                                               ; preds = %54
  %59 = getelementptr inbounds nuw i8, ptr %0, i64 24
  %60 = load ptr, ptr %59, align 8, !tbaa !13
  %61 = getelementptr inbounds nuw i8, ptr %0, i64 16
  %62 = load ptr, ptr %61, align 8, !tbaa !12
  tail call void %60(ptr noundef nonnull @.str.83, i64 noundef 2, ptr noundef %62) #11
  br label %print_str.exit

63:                                               ; preds = %10
  %64 = getelementptr inbounds nuw i8, ptr %0, i64 40
  %65 = load i8, ptr %64, align 8, !tbaa !15, !range !24, !noundef !25
  %66 = trunc nuw i8 %65 to i1
  br i1 %66, label %print_str.exit, label %67

67:                                               ; preds = %63
  %68 = getelementptr inbounds nuw i8, ptr %0, i64 41
  %69 = load i8, ptr %68, align 1, !tbaa !16, !range !24, !noundef !25
  %70 = trunc nuw i8 %69 to i1
  br i1 %70, label %print_str.exit, label %71

71:                                               ; preds = %67
  %72 = getelementptr inbounds nuw i8, ptr %0, i64 24
  %73 = load ptr, ptr %72, align 8, !tbaa !13
  %74 = getelementptr inbounds nuw i8, ptr %0, i64 16
  %75 = load ptr, ptr %74, align 8, !tbaa !12
  tail call void %73(ptr noundef nonnull @.str.84, i64 noundef 2, ptr noundef %75) #11
  br label %print_str.exit

76:                                               ; preds = %10
  %77 = icmp eq i8 %1, 34
  %78 = getelementptr inbounds nuw i8, ptr %0, i64 40
  %79 = load i8, ptr %78, align 8, !tbaa !15, !range !24, !noundef !25
  %80 = trunc nuw i8 %79 to i1
  br i1 %77, label %81, label %91

81:                                               ; preds = %76
  br i1 %80, label %print_str.exit, label %82

82:                                               ; preds = %81
  %83 = getelementptr inbounds nuw i8, ptr %0, i64 41
  %84 = load i8, ptr %83, align 1, !tbaa !16, !range !24, !noundef !25
  %85 = trunc nuw i8 %84 to i1
  br i1 %85, label %print_str.exit, label %86

86:                                               ; preds = %82
  %87 = getelementptr inbounds nuw i8, ptr %0, i64 24
  %88 = load ptr, ptr %87, align 8, !tbaa !13
  %89 = getelementptr inbounds nuw i8, ptr %0, i64 16
  %90 = load ptr, ptr %89, align 8, !tbaa !12
  tail call void %88(ptr noundef nonnull @.str.85, i64 noundef 2, ptr noundef %90) #11
  br label %print_str.exit

91:                                               ; preds = %76
  br i1 %80, label %print_str.exit, label %92

92:                                               ; preds = %91
  %93 = getelementptr inbounds nuw i8, ptr %0, i64 41
  %94 = load i8, ptr %93, align 1, !tbaa !16, !range !24, !noundef !25
  %95 = trunc nuw i8 %94 to i1
  br i1 %95, label %print_str.exit, label %96

96:                                               ; preds = %92
  %97 = getelementptr inbounds nuw i8, ptr %0, i64 24
  %98 = load ptr, ptr %97, align 8, !tbaa !13
  %99 = getelementptr inbounds nuw i8, ptr %0, i64 16
  %100 = load ptr, ptr %99, align 8, !tbaa !12
  tail call void %98(ptr noundef nonnull @.str.86, i64 noundef 1, ptr noundef %100) #11
  br label %print_str.exit

101:                                              ; preds = %10
  %102 = icmp eq i8 %1, 39
  %103 = getelementptr inbounds nuw i8, ptr %0, i64 40
  %104 = load i8, ptr %103, align 8, !tbaa !15, !range !24, !noundef !25
  %105 = trunc nuw i8 %104 to i1
  br i1 %102, label %106, label %116

106:                                              ; preds = %101
  br i1 %105, label %print_str.exit, label %107

107:                                              ; preds = %106
  %108 = getelementptr inbounds nuw i8, ptr %0, i64 41
  %109 = load i8, ptr %108, align 1, !tbaa !16, !range !24, !noundef !25
  %110 = trunc nuw i8 %109 to i1
  br i1 %110, label %print_str.exit, label %111

111:                                              ; preds = %107
  %112 = getelementptr inbounds nuw i8, ptr %0, i64 24
  %113 = load ptr, ptr %112, align 8, !tbaa !13
  %114 = getelementptr inbounds nuw i8, ptr %0, i64 16
  %115 = load ptr, ptr %114, align 8, !tbaa !12
  tail call void %113(ptr noundef nonnull @.str.87, i64 noundef 2, ptr noundef %115) #11
  br label %print_str.exit

116:                                              ; preds = %101
  br i1 %105, label %print_str.exit, label %117

117:                                              ; preds = %116
  %118 = getelementptr inbounds nuw i8, ptr %0, i64 41
  %119 = load i8, ptr %118, align 1, !tbaa !16, !range !24, !noundef !25
  %120 = trunc nuw i8 %119 to i1
  br i1 %120, label %print_str.exit, label %121

121:                                              ; preds = %117
  %122 = getelementptr inbounds nuw i8, ptr %0, i64 24
  %123 = load ptr, ptr %122, align 8, !tbaa !13
  %124 = getelementptr inbounds nuw i8, ptr %0, i64 16
  %125 = load ptr, ptr %124, align 8, !tbaa !12
  tail call void %123(ptr noundef nonnull @.str.72, i64 noundef 1, ptr noundef %125) #11
  br label %print_str.exit

126:                                              ; preds = %10
  %127 = add nsw i32 %2, -32
  %or.cond3 = icmp ult i32 %127, 95
  br i1 %or.cond3, label %128, label %142

128:                                              ; preds = %126
  call void @llvm.lifetime.start.p0(i64 1, ptr nonnull %4) #11
  %129 = trunc nuw nsw i32 %2 to i8
  store i8 %129, ptr %4, align 1, !tbaa !21
  %130 = getelementptr inbounds nuw i8, ptr %0, i64 40
  %131 = load i8, ptr %130, align 8, !tbaa !15, !range !24, !noundef !25
  %132 = trunc nuw i8 %131 to i1
  br i1 %132, label %print_str.exit35, label %133

133:                                              ; preds = %128
  %134 = getelementptr inbounds nuw i8, ptr %0, i64 41
  %135 = load i8, ptr %134, align 1, !tbaa !16, !range !24, !noundef !25
  %136 = trunc nuw i8 %135 to i1
  br i1 %136, label %print_str.exit35, label %137

137:                                              ; preds = %133
  %138 = getelementptr inbounds nuw i8, ptr %0, i64 24
  %139 = load ptr, ptr %138, align 8, !tbaa !13
  %140 = getelementptr inbounds nuw i8, ptr %0, i64 16
  %141 = load ptr, ptr %140, align 8, !tbaa !12
  call void %139(ptr noundef nonnull %4, i64 noundef 1, ptr noundef %141) #11
  br label %print_str.exit35

print_str.exit35:                                 ; preds = %128, %133, %137
  call void @llvm.lifetime.end.p0(i64 1, ptr nonnull %4) #11
  br label %print_str.exit

142:                                              ; preds = %126
  %143 = getelementptr inbounds nuw i8, ptr %0, i64 40
  %144 = load i8, ptr %143, align 8, !tbaa !15, !range !24, !noundef !25
  %145 = trunc nuw i8 %144 to i1
  br i1 %145, label %print_str.exit36, label %146

146:                                              ; preds = %142
  %147 = getelementptr inbounds nuw i8, ptr %0, i64 41
  %148 = load i8, ptr %147, align 1, !tbaa !16, !range !24, !noundef !25
  %149 = trunc nuw i8 %148 to i1
  br i1 %149, label %print_str.exit36, label %150

150:                                              ; preds = %146
  %151 = getelementptr inbounds nuw i8, ptr %0, i64 24
  %152 = load ptr, ptr %151, align 8, !tbaa !13
  %153 = getelementptr inbounds nuw i8, ptr %0, i64 16
  %154 = load ptr, ptr %153, align 8, !tbaa !12
  tail call void %152(ptr noundef nonnull @.str.25, i64 noundef 3, ptr noundef %154) #11
  br label %print_str.exit36

print_str.exit36:                                 ; preds = %142, %146, %150
  call void @llvm.lifetime.start.p0(i64 9, ptr nonnull %5) #11
  call void @llvm.memset.p0.i64(ptr noundef nonnull align 1 dereferenceable(9) %5, i8 0, i64 9, i1 false)
  %155 = call i32 (ptr, ptr, ...) @sprintf(ptr noundef nonnull dereferenceable(1) %5, ptr noundef nonnull dereferenceable(1) @.str.26, i32 noundef %2) #11
  %156 = call i64 @strlen(ptr noundef nonnull dereferenceable(1) %5) #12
  %157 = load i8, ptr %143, align 8, !tbaa !15, !range !24, !noundef !25
  %158 = trunc nuw i8 %157 to i1
  br i1 %158, label %print_str.exit38, label %159

159:                                              ; preds = %print_str.exit36
  %160 = getelementptr inbounds nuw i8, ptr %0, i64 41
  %161 = load i8, ptr %160, align 1, !tbaa !16, !range !24, !noundef !25
  %162 = trunc nuw i8 %161 to i1
  br i1 %162, label %print_str.exit37.thread39, label %print_str.exit37

print_str.exit37:                                 ; preds = %159
  %163 = getelementptr inbounds nuw i8, ptr %0, i64 24
  %164 = load ptr, ptr %163, align 8, !tbaa !13
  %165 = getelementptr inbounds nuw i8, ptr %0, i64 16
  %166 = load ptr, ptr %165, align 8, !tbaa !12
  call void %164(ptr noundef nonnull %5, i64 noundef %156, ptr noundef %166) #11
  %.pre = load i8, ptr %143, align 8, !tbaa !15, !range !24
  %167 = trunc nuw i8 %.pre to i1
  br i1 %167, label %print_str.exit38, label %print_str.exit37.thread39

print_str.exit37.thread39:                        ; preds = %159, %print_str.exit37
  %168 = getelementptr inbounds nuw i8, ptr %0, i64 41
  %169 = load i8, ptr %168, align 1, !tbaa !16, !range !24, !noundef !25
  %170 = trunc nuw i8 %169 to i1
  br i1 %170, label %print_str.exit38, label %171

171:                                              ; preds = %print_str.exit37.thread39
  %172 = getelementptr inbounds nuw i8, ptr %0, i64 24
  %173 = load ptr, ptr %172, align 8, !tbaa !13
  %174 = getelementptr inbounds nuw i8, ptr %0, i64 16
  %175 = load ptr, ptr %174, align 8, !tbaa !12
  call void %173(ptr noundef nonnull @.str.27, i64 noundef 1, ptr noundef %175) #11
  br label %print_str.exit38

print_str.exit38:                                 ; preds = %print_str.exit36, %print_str.exit37, %print_str.exit37.thread39, %171
  call void @llvm.lifetime.end.p0(i64 9, ptr nonnull %5) #11
  br label %print_str.exit

print_str.exit:                                   ; preds = %121, %117, %116, %111, %107, %106, %96, %92, %91, %86, %82, %81, %71, %67, %63, %58, %54, %50, %45, %41, %37, %32, %28, %24, %19, %15, %11, %print_str.exit35, %print_str.exit38, %8
  ret void
}